Certificate:
    Data:
        Version: 3 (0x2)
        Serial Number: 1 (0x1)
    Signature Algorithm: sha256WithRSAEncryption
        Issuer: CN=devcert
        Validity
            Not Before: May 13 13:37:37 2020 GMT
            Not After : Aug 16 13:37:37 2022 GMT
        Subject: CN=localhost
        Subject Public Key Info:
            Public Key Algorithm: rsaEncryption
                Public-Key: (2048 bit)
                Modulus:
                    00:e8:83:ca:da:d9:7a:41:79:9d:fb:2c:6a:7d:9d:
                    b4:4e:98:d3:02:ed:f0:d7:e6:5e:75:72:83:99:f7:
                    c6:1a:be:4a:76:38:d5:68:ca:6a:80:82:ce:4c:f8:
                    a5:4d:81:3a:75:1a:d3:e4:fa:76:1b:a0:42:5d:ec:
                    90:31:6c:ac:99:a1:f9:ef:f7:7a:4f:39:c5:7c:89:
                    b4:d3:70:3c:95:46:2d:4a:24:19:ff:c6:e2:1f:45:
                    79:9a:fc:97:89:df:3b:30:e0:cc:48:0f:39:c3:8f:
                    21:e2:71:39:84:d4:0b:d3:94:88:e9:a0:e7:9e:4e:
                    bb:0d:42:c1:8f:f5:4a:ee:d7:44:a8:9c:c8:3b:46:
                    a9:a1:f5:cb:c8:68:f2:2b:a9:ff:c1:78:04:df:24:
                    2e:2b:96:1c:c0:0c:c0:5e:52:a4:7a:f0:48:c7:57:
                    56:4d:65:9a:a5:30:76:92:19:d7:58:6c:0a:6f:26:
                    d0:12:52:3f:20:ac:2a:eb:e4:c5:7f:64:87:3c:ba:
                    a9:1b:3a:26:0c:a8:3d:be:82:d4:ad:bb:98:07:c7:
                    64:29:ad:80:80:ae:70:43:2e:ce:4f:91:67:c9:8d:
                    d2:5d:bd:6d:b3:d2:ea:5f:eb:7f:6b:e0:22:37:d9:
                    c8:4c:3d:a4:e6:26:ef:e7:09:b3:36:aa:ed:52:0a:
                    a0:ad
                Exponent: 65537 (0x10001)
        X509v3 extensions:
            X509v3 Basic Constraints: critical
                CA:FALSE
            X509v3 Subject Key Identifier: 
                9C:B2:EF:6E:EC:C3:DE:DB:CC:EE:1E:D7:E9:FE:0B:50:B3:6A:2A:75
            X509v3 Authority Key Identifier: 
                keyid:EB:C4:04:F6:BD:6C:21:A3:6E:02:C4:A8:39:7D:35:0F:6F:28:69:F3
                DirName:/CN=devcert
                serial:AD:3A:0A:4A:2F:15:4F:DA

            X509v3 Key Usage: critical
                Digital Signature, Key Encipherment
            X509v3 Extended Key Usage: 
                TLS Web Server Authentication
            X509v3 Subject Alternative Name: 
                DNS:localhost, DNS:*.localhost
    Signature Algorithm: sha256WithRSAEncryption
         5a:f1:56:73:53:42:87:32:88:2e:06:3a:58:6c:fa:36:39:ab:
         31:ec:ae:70:12:46:9d:49:6e:89:6e:8b:c3:31:7a:2e:5b:f1:
         0e:7b:76:64:21:1f:ab:81:d5:09:46:cc:ec:80:5b:44:5d:76:
         ca:b2:08:6d:cc:8d:7d:a9:33:91:87:8c:4c:90:ae:ef:91:1e:
         19:ed:93:56:97:09:50:f1:33:7f:c5:40:4e:a9:ba:0e:71:28:
         1d:20:f6:45:22:12:7e:59:7c:d4:08:21:45:b8:82:f7:3c:ca:
         a0:ca:d7:16:53:25:17:ce:27:b0:be:0f:16:a4:2f:1a:eb:b5:
         83:f2:e7:b7:8f:54:69:06:1b:37:80:63:e9:6e:37:70:bc:17:
         f7:4b:5a:2d:b1:cd:17:19:50:d4:f7:bc:a8:9b:12:73:b3:ad:
         ee:70:6d:8c:56:00:bb:0e:68:0a:75:de:5d:b3:2e:97:73:26:
         d5:77:fe:69:89:04:57:19:ef:85:46:75:35:60:e6:a4:8e:0d:
         1b:33:ca:77:31:62:5f:d4:c7:6f:52:df:b9:7a:c7:16:ad:a0:
         fc:f8:88:05:10:bd:00:69:e4:a2:48:a9:26:7f:4d:5d:f4:36:
         c9:73:20:cc:40:ac:55:54:e3:cd:22:ae:e8:e1:43:30:6e:55:
         4f:51:f2:b7
-----BEGIN CERTIFICATE-----
MIIDXjCCAkagAwIBAgIBATANBgkqhkiG9w0BAQsFADASMRAwDgYDVQQDDAdkZXZj
ZXJ0MB4XDTIwMDUxMzEzMzczN1oXDTIyMDgxNjEzMzczN1owFDESMBAGA1UEAwwJ
bG9jYWxob3N0MIIBIjANBgkqhkiG9w0BAQEFAAOCAQ8AMIIBCgKCAQEA6IPK2tl6
QXmd+yxqfZ20TpjTAu3w1+ZedXKDmffGGr5KdjjVaMpqgILOTPilTYE6dRrT5Pp2
G6BCXeyQMWysmaH57/d6TznFfIm003A8lUYtSiQZ/8biH0V5mvyXid87MODMSA85
w48h4nE5hNQL05SI6aDnnk67DULBj/VK7tdEqJzIO0apofXLyGjyK6n/wXgE3yQu
K5YcwAzAXlKkevBIx1dWTWWapTB2khnXWGwKbybQElI/IKwq6+TFf2SHPLqpGzom
DKg9voLUrbuYB8dkKa2AgK5wQy7OT5FnyY3SXb1ts9LqX+t/a+AiN9nITD2k5ibv
5wmzNqrtUgqgrQIDAQABo4G8MIG5MAwGA1UdEwEB/wQCMAAwHQYDVR0OBBYEFJyy
727sw97bzO4e1+n+C1Czaip1MEIGA1UdIwQ7MDmAFOvEBPa9bCGjbgLEqDl9NQ9v
KGnzoRakFDASMRAwDgYDVQQDDAdkZXZjZXJ0ggkArToKSi8VT9owDgYDVR0PAQH/
BAQDAgWgMBMGA1UdJQQMMAoGCCsGAQUFBwMBMCEGA1UdEQQaMBiCCWxvY2FsaG9z
dIILKi5sb2NhbGhvc3QwDQYJKoZIhvcNAQELBQADggEBAFrxVnNTQocyiC4GOlhs
+jY5qzHsrnASRp1Jbolui8Mxei5b8Q57dmQhH6uB1QlGzOyAW0RddsqyCG3MjX2p
M5GHjEyQru+RHhntk1aXCVDxM3/FQE6pug5xKB0g9kUiEn5ZfNQIIUW4gvc8yqDK
1xZTJRfOJ7C+DxakLxrrtYPy57ePVGkGGzeAY+luN3C8F/dLWi2xzRcZUNT3vKib
EnOzre5wbYxWALsOaAp13l2zLpdzJtV3/mmJBFcZ74VGdTVg5qSODRszyncxYl/U
x29S37l6xxatoPz4iAUQvQBp5KJIqSZ/TV30NslzIMxArFVU480irujhQzBuVU9R
8rc=
-----END CERTIFICATE-----
